target datalayout = "e-m:e-p270:32:32-p271:32:32-p272:64:64-i64:64-i128:128-f80:128-n8:16:32:64-S128"
target triple = "x86_64-pc-linux-gnu"

%struct.H5P_libclass_t = type { ptr, i32, ptr, ptr, ptr, ptr, ptr, ptr, ptr, ptr, ptr, ptr, ptr }
%struct.H5VL_loc_params_t = type { i32, i32, %union.anon }
%union.anon = type { %struct.H5VL_loc_by_idx }
%struct.H5VL_loc_by_idx = type { ptr, i32, i32, i64, i64 }
%struct.H5VL_link_create_args_t = type { i32, %union.anon.0 }
%union.anon.0 = type { %struct.anon }
%struct.anon = type { ptr, %struct.H5VL_loc_params_t }
%struct.anon.1 = type { ptr }

@H5_libterm_g = external global i8, align 1
@.str = private unnamed_addr constant [97 x i8] c"generated/home/dtcxzyw/WorkSpace/Projects/compilers/llvm-opt-benchmark/bench/hdf5/hdf5/src/H5L.c\00", align 1
@H5L_init_g = external global i8, align 1
@H5E_CANTSET_g = external global i64, align 8
@H5E_ARGS_g = external global i64, align 8
@H5E_BADVALUE_g = external global i64, align 8
@H5P_CLS_LINK_CREATE_ID_g = external global i64, align 8
@H5E_BADTYPE_g = external global i64, align 8
@.str.9 = private unnamed_addr constant [34 x i8] c"not a link creation property list\00", align 1
@H5P_LST_LINK_CREATE_ID_g = external global i64, align 8
@H5P_CLS_LACC = external constant [1 x %struct.H5P_libclass_t], align 16
@H5E_LINK_g = external global i64, align 8
@.str.10 = private unnamed_addr constant [36 x i8] c"can't set access property list info\00", align 1
@H5P_LST_DATASET_XFER_ID_g = external global i64, align 8
@H5E_CANTCREATE_g = external global i64, align 8
@__func__.H5L__create_soft_api_common = private unnamed_addr constant [28 x i8] c"H5L__create_soft_api_common\00", align 1
@.str.95 = private unnamed_addr constant [44 x i8] c"link location id should not be H5L_SAME_LOC\00", align 1
@.str.96 = private unnamed_addr constant [37 x i8] c"link_target parameter cannot be NULL\00", align 1
@.str.97 = private unnamed_addr constant [48 x i8] c"link_target parameter cannot be an empty string\00", align 1
@.str.98 = private unnamed_addr constant [34 x i8] c"can't set object access arguments\00", align 1
@.str.99 = private unnamed_addr constant [27 x i8] c"unable to create soft link\00", align 1

; Function Attrs: nounwind uwtable
define internal i32 @H5L__create_soft_api_common(ptr noundef %0, i64 noundef %1, ptr noundef %2, i64 noundef %3, i64 noundef %4, ptr noundef %5, ptr noundef %6) #0 {
  %8 = alloca ptr, align 8
  %9 = alloca i64, align 8
  %10 = alloca ptr, align 8
  %11 = alloca i64, align 8
  %12 = alloca i64, align 8
  %13 = alloca ptr, align 8
  %14 = alloca ptr, align 8
  %15 = alloca ptr, align 8
  %16 = alloca ptr, align 8
  %17 = alloca %struct.H5VL_link_create_args_t, align 8
  %18 = alloca %struct.H5VL_loc_params_t, align 8
  %19 = alloca i32, align 4
  %20 = alloca i8, align 1
  store ptr %0, ptr %8, align 8, !tbaa !7
  store i64 %1, ptr %9, align 8, !tbaa !3
  store ptr %2, ptr %10, align 8, !tbaa !7
  store i64 %3, ptr %11, align 8, !tbaa !3
  store i64 %4, ptr %12, align 8, !tbaa !3
  store ptr %5, ptr %13, align 8, !tbaa !22
  store ptr %6, ptr %14, align 8, !tbaa !23
  call void @llvm.lifetime.start.p0(i64 8, ptr %15) #8
  store ptr null, ptr %15, align 8, !tbaa !10
  call void @llvm.lifetime.start.p0(i64 8, ptr %16) #8
  %21 = load ptr, ptr %14, align 8, !tbaa !23
  %22 = icmp ne ptr %21, null
  br i1 %22, label %23, label %25

23:                                               ; preds = %7
  %24 = load ptr, ptr %14, align 8, !tbaa !23
  br label %26

25:                                               ; preds = %7
  br label %26

26:                                               ; preds = %25, %23
  %27 = phi ptr [ %24, %23 ], [ %15, %25 ]
  store ptr %27, ptr %16, align 8, !tbaa !23
  call void @llvm.lifetime.start.p0(i64 56, ptr %17) #8
  call void @llvm.lifetime.start.p0(i64 40, ptr %18) #8
  call void @llvm.lifetime.start.p0(i64 4, ptr %19) #8
  store i32 0, ptr %19, align 4, !tbaa !12
  call void @llvm.lifetime.start.p0(i64 1, ptr %20) #8
  store i8 0, ptr %20, align 1, !tbaa !14
  %28 = load i8, ptr @H5L_init_g, align 1, !tbaa !14, !range !16, !noundef !17
  %29 = trunc i8 %28 to i1
  br i1 %29, label %34, label %30

30:                                               ; preds = %26
  %31 = load i8, ptr @H5_libterm_g, align 1, !tbaa !14, !range !16, !noundef !17
  %32 = trunc i8 %31 to i1
  %33 = xor i1 %32, true
  br label %34

34:                                               ; preds = %30, %26
  %35 = phi i1 [ true, %26 ], [ %33, %30 ]
  %36 = xor i1 %35, true
  %37 = xor i1 %36, true
  %38 = zext i1 %37 to i32
  %39 = sext i32 %38 to i64
  %40 = call i64 @llvm.expect.i64(i64 %39, i64 1)
  %41 = icmp ne i64 %40, 0
  br i1 %41, label %42, label %225

42:                                               ; preds = %34
  %43 = load i64, ptr %9, align 8, !tbaa !3
  %44 = icmp eq i64 %43, 0
  br i1 %44, label %45, label %64

45:                                               ; preds = %42
  br label %46

46:                                               ; preds = %45
  br label %47

47:                                               ; preds = %46
  br label %48

48:                                               ; preds = %47
  %49 = load i64, ptr @H5E_ARGS_g, align 8, !tbaa !3
  %50 = load i64, ptr @H5E_BADVALUE_g, align 8, !tbaa !3
  %51 = call i32 (ptr, ptr, i32, i64, i64, ptr, ...) @H5E_printf_stack(ptr noundef @.str, ptr noundef @__func__.H5L__create_soft_api_common, i32 noundef 304, i64 noundef %49, i64 noundef %50, ptr noundef @.str.95)
  br label %52

52:                                               ; preds = %48
  br label %53

53:                                               ; preds = %52
  store i8 1, ptr %20, align 1, !tbaa !14
  %54 = load i8, ptr %20, align 1, !tbaa !14, !range !16, !noundef !17
  %55 = trunc i8 %54 to i1
  %56 = zext i1 %55 to i8
  store i8 %56, ptr %20, align 1, !tbaa !14
  br label %57

57:                                               ; preds = %53
  br label %58

58:                                               ; preds = %57
  br label %59

59:                                               ; preds = %58
  store i32 -1, ptr %19, align 4, !tbaa !12
  br label %224

60:                                               ; No predecessors!
  br label %61

61:                                               ; preds = %60
  br label %62

62:                                               ; preds = %61
  br label %63

63:                                               ; preds = %62
  br label %64

64:                                               ; preds = %63, %42
  %65 = load ptr, ptr %8, align 8, !tbaa !7
  %66 = icmp ne ptr %65, null
  br i1 %66, label %86, label %67

67:                                               ; preds = %64
  br label %68

68:                                               ; preds = %67
  br label %69

69:                                               ; preds = %68
  br label %70

70:                                               ; preds = %69
  %71 = load i64, ptr @H5E_ARGS_g, align 8, !tbaa !3
  %72 = load i64, ptr @H5E_BADVALUE_g, align 8, !tbaa !3
  %73 = call i32 (ptr, ptr, i32, i64, i64, ptr, ...) @H5E_printf_stack(ptr noundef @.str, ptr noundef @__func__.H5L__create_soft_api_common, i32 noundef 306, i64 noundef %71, i64 noundef %72, ptr noundef @.str.96)
  br label %74

74:                                               ; preds = %70
  br label %75

75:                                               ; preds = %74
  store i8 1, ptr %20, align 1, !tbaa !14
  %76 = load i8, ptr %20, align 1, !tbaa !14, !range !16, !noundef !17
  %77 = trunc i8 %76 to i1
  %78 = zext i1 %77 to i8
  store i8 %78, ptr %20, align 1, !tbaa !14
  br label %79

79:                                               ; preds = %75
  br label %80

80:                                               ; preds = %79
  br label %81

81:                                               ; preds = %80
  store i32 -1, ptr %19, align 4, !tbaa !12
  br label %224

82:                                               ; No predecessors!
  br label %83

83:                                               ; preds = %82
  br label %84

84:                                               ; preds = %83
  br label %85

85:                                               ; preds = %84
  br label %86

86:                                               ; preds = %85, %64
  %87 = load ptr, ptr %8, align 8, !tbaa !7
  %88 = load i8, ptr %87, align 1, !tbaa !18
  %89 = icmp ne i8 %88, 0
  br i1 %89, label %109, label %90

90:                                               ; preds = %86
  br label %91

91:                                               ; preds = %90
  br label %92

92:                                               ; preds = %91
  br label %93

93:                                               ; preds = %92
  %94 = load i64, ptr @H5E_ARGS_g, align 8, !tbaa !3
  %95 = load i64, ptr @H5E_BADVALUE_g, align 8, !tbaa !3
  %96 = call i32 (ptr, ptr, i32, i64, i64, ptr, ...) @H5E_printf_stack(ptr noundef @.str, ptr noundef @__func__.H5L__create_soft_api_common, i32 noundef 308, i64 noundef %94, i64 noundef %95, ptr noundef @.str.97)
  br label %97

97:                                               ; preds = %93
  br label %98

98:                                               ; preds = %97
  store i8 1, ptr %20, align 1, !tbaa !14
  %99 = load i8, ptr %20, align 1, !tbaa !14, !range !16, !noundef !17
  %100 = trunc i8 %99 to i1
  %101 = zext i1 %100 to i8
  store i8 %101, ptr %20, align 1, !tbaa !14
  br label %102

102:                                              ; preds = %98
  br label %103

103:                                              ; preds = %102
  br label %104

104:                                              ; preds = %103
  store i32 -1, ptr %19, align 4, !tbaa !12
  br label %224

105:                                              ; No predecessors!
  br label %106

106:                                              ; preds = %105
  br label %107

107:                                              ; preds = %106
  br label %108

108:                                              ; preds = %107
  br label %109

109:                                              ; preds = %108, %86
  %110 = load i64, ptr %11, align 8, !tbaa !3
  %111 = icmp ne i64 %110, 0
  br i1 %111, label %112, label %136

112:                                              ; preds = %109
  %113 = load i64, ptr %11, align 8, !tbaa !3
  %114 = load i64, ptr @H5P_CLS_LINK_CREATE_ID_g, align 8, !tbaa !3
  %115 = call i32 @H5P_isa_class(i64 noundef %113, i64 noundef %114)
  %116 = icmp ne i32 1, %115
  br i1 %116, label %117, label %136

117:                                              ; preds = %112
  br label %118

118:                                              ; preds = %117
  br label %119

119:                                              ; preds = %118
  br label %120

120:                                              ; preds = %119
  %121 = load i64, ptr @H5E_ARGS_g, align 8, !tbaa !3
  %122 = load i64, ptr @H5E_BADTYPE_g, align 8, !tbaa !3
  %123 = call i32 (ptr, ptr, i32, i64, i64, ptr, ...) @H5E_printf_stack(ptr noundef @.str, ptr noundef @__func__.H5L__create_soft_api_common, i32 noundef 310, i64 noundef %121, i64 noundef %122, ptr noundef @.str.9)
  br label %124

124:                                              ; preds = %120
  br label %125

125:                                              ; preds = %124
  store i8 1, ptr %20, align 1, !tbaa !14
  %126 = load i8, ptr %20, align 1, !tbaa !14, !range !16, !noundef !17
  %127 = trunc i8 %126 to i1
  %128 = zext i1 %127 to i8
  store i8 %128, ptr %20, align 1, !tbaa !14
  br label %129

129:                                              ; preds = %125
  br label %130

130:                                              ; preds = %129
  br label %131

131:                                              ; preds = %130
  store i32 -1, ptr %19, align 4, !tbaa !12
  br label %224

132:                                              ; No predecessors!
  br label %133

133:                                              ; preds = %132
  br label %134

134:                                              ; preds = %133
  br label %135

135:                                              ; preds = %134
  br label %136

136:                                              ; preds = %135, %112, %109
  %137 = load i64, ptr %11, align 8, !tbaa !3
  %138 = icmp eq i64 0, %137
  br i1 %138, label %139, label %141

139:                                              ; preds = %136
  %140 = load i64, ptr @H5P_LST_LINK_CREATE_ID_g, align 8, !tbaa !3
  store i64 %140, ptr %11, align 8, !tbaa !3
  br label %141

141:                                              ; preds = %139, %136
  %142 = load i64, ptr %11, align 8, !tbaa !3
  call void @H5CX_set_lcpl(i64 noundef %142)
  %143 = load i64, ptr %9, align 8, !tbaa !3
  %144 = call i32 @H5CX_set_apl(ptr noundef %12, ptr noundef @H5P_CLS_LACC, i64 noundef %143, i1 noundef zeroext true)
  %145 = icmp slt i32 %144, 0
  br i1 %145, label %146, label %165

146:                                              ; preds = %141
  br label %147

147:                                              ; preds = %146
  br label %148

148:                                              ; preds = %147
  br label %149

149:                                              ; preds = %148
  %150 = load i64, ptr @H5E_LINK_g, align 8, !tbaa !3
  %151 = load i64, ptr @H5E_CANTSET_g, align 8, !tbaa !3
  %152 = call i32 (ptr, ptr, i32, i64, i64, ptr, ...) @H5E_printf_stack(ptr noundef @.str, ptr noundef @__func__.H5L__create_soft_api_common, i32 noundef 322, i64 noundef %150, i64 noundef %151, ptr noundef @.str.10)
  br label %153

153:                                              ; preds = %149
  br label %154

154:                                              ; preds = %153
  store i8 1, ptr %20, align 1, !tbaa !14
  %155 = load i8, ptr %20, align 1, !tbaa !14, !range !16, !noundef !17
  %156 = trunc i8 %155 to i1
  %157 = zext i1 %156 to i8
  store i8 %157, ptr %20, align 1, !tbaa !14
  br label %158

158:                                              ; preds = %154
  br label %159

159:                                              ; preds = %158
  br label %160

160:                                              ; preds = %159
  store i32 -1, ptr %19, align 4, !tbaa !12
  br label %224

161:                                              ; No predecessors!
  br label %162

162:                                              ; preds = %161
  br label %163

163:                                              ; preds = %162
  br label %164

164:                                              ; preds = %163
  br label %165

165:                                              ; preds = %164, %141
  %166 = load i64, ptr %9, align 8, !tbaa !3
  %167 = load ptr, ptr %10, align 8, !tbaa !7
  %168 = load i64, ptr %12, align 8, !tbaa !3
  %169 = load ptr, ptr %16, align 8, !tbaa !23
  %170 = call i32 @H5VL_setup_name_args(i64 noundef %166, ptr noundef %167, i1 noundef zeroext true, i64 noundef %168, ptr noundef %169, ptr noundef %18)
  %171 = icmp slt i32 %170, 0
  br i1 %171, label %172, label %191

172:                                              ; preds = %165
  br label %173

173:                                              ; preds = %172
  br label %174

174:                                              ; preds = %173
  br label %175

175:                                              ; preds = %174
  %176 = load i64, ptr @H5E_LINK_g, align 8, !tbaa !3
  %177 = load i64, ptr @H5E_CANTSET_g, align 8, !tbaa !3
  %178 = call i32 (ptr, ptr, i32, i64, i64, ptr, ...) @H5E_printf_stack(ptr noundef @.str, ptr noundef @__func__.H5L__create_soft_api_common, i32 noundef 326, i64 noundef %176, i64 noundef %177, ptr noundef @.str.98)
  br label %179

179:                                              ; preds = %175
  br label %180

180:                                              ; preds = %179
  store i8 1, ptr %20, align 1, !tbaa !14
  %181 = load i8, ptr %20, align 1, !tbaa !14, !range !16, !noundef !17
  %182 = trunc i8 %181 to i1
  %183 = zext i1 %182 to i8
  store i8 %183, ptr %20, align 1, !tbaa !14
  br label %184

184:                                              ; preds = %180
  br label %185

185:                                              ; preds = %184
  br label %186

186:                                              ; preds = %185
  store i32 -1, ptr %19, align 4, !tbaa !12
  br label %224

187:                                              ; No predecessors!
  br label %188

188:                                              ; preds = %187
  br label %189

189:                                              ; preds = %188
  br label %190

190:                                              ; preds = %189
  br label %191

191:                                              ; preds = %190, %165
  %192 = getelementptr inbounds nuw %struct.H5VL_link_create_args_t, ptr %17, i32 0, i32 0
  store i32 1, ptr %192, align 8, !tbaa !25
  %193 = load ptr, ptr %8, align 8, !tbaa !7
  %194 = getelementptr inbounds nuw %struct.H5VL_link_create_args_t, ptr %17, i32 0, i32 1
  %195 = getelementptr inbounds nuw %struct.anon.1, ptr %194, i32 0, i32 0
  store ptr %193, ptr %195, align 8, !tbaa !18
  %196 = load ptr, ptr %16, align 8, !tbaa !23
  %197 = load ptr, ptr %196, align 8, !tbaa !10
  %198 = load i64, ptr %11, align 8, !tbaa !3
  %199 = load i64, ptr %12, align 8, !tbaa !3
  %200 = load i64, ptr @H5P_LST_DATASET_XFER_ID_g, align 8, !tbaa !3
  %201 = load ptr, ptr %13, align 8, !tbaa !22
  %202 = call i32 @H5VL_link_create(ptr noundef %17, ptr noundef %197, ptr noundef %18, i64 noundef %198, i64 noundef %199, i64 noundef %200, ptr noundef %201)
  %203 = icmp slt i32 %202, 0
  br i1 %203, label %204, label %223

204:                                              ; preds = %191
  br label %205

205:                                              ; preds = %204
  br label %206

206:                                              ; preds = %205
  br label %207

207:                                              ; preds = %206
  %208 = load i64, ptr @H5E_LINK_g, align 8, !tbaa !3
  %209 = load i64, ptr @H5E_CANTCREATE_g, align 8, !tbaa !3
  %210 = call i32 (ptr, ptr, i32, i64, i64, ptr, ...) @H5E_printf_stack(ptr noundef @.str, ptr noundef @__func__.H5L__create_soft_api_common, i32 noundef 335, i64 noundef %208, i64 noundef %209, ptr noundef @.str.99)
  br label %211

211:                                              ; preds = %207
  br label %212

212:                                              ; preds = %211
  store i8 1, ptr %20, align 1, !tbaa !14
  %213 = load i8, ptr %20, align 1, !tbaa !14, !range !16, !noundef !17
  %214 = trunc i8 %213 to i1
  %215 = zext i1 %214 to i8
  store i8 %215, ptr %20, align 1, !tbaa !14
  br label %216

216:                                              ; preds = %212
  br label %217

217:                                              ; preds = %216
  br label %218

218:                                              ; preds = %217
  store i32 -1, ptr %19, align 4, !tbaa !12
  br label %224

219:                                              ; No predecessors!
  br label %220

220:                                              ; preds = %219
  br label %221

221:                                              ; preds = %220
  br label %222

222:                                              ; preds = %221
  br label %223

223:                                              ; preds = %222, %191
  br label %224

224:                                              ; preds = %223, %218, %186, %160, %131, %104, %81, %59
  br label %225

225:                                              ; preds = %224, %34
  %226 = load i32, ptr %19, align 4, !tbaa !12
  call void @llvm.lifetime.end.p0(i64 1, ptr %20) #8
  call void @llvm.lifetime.end.p0(i64 4, ptr %19) #8
  call void @llvm.lifetime.end.p0(i64 40, ptr %18) #8
  call void @llvm.lifetime.end.p0(i64 56, ptr %17) #8
  call void @llvm.lifetime.end.p0(i64 8, ptr %16) #8
  call void @llvm.lifetime.end.p0(i64 8, ptr %15) #8
  ret i32 %226
}