; Function Attrs: nounwind uwtable
define internal fastcc range(i32 -1, 1) i32 @H5L__create_soft_api_common(ptr noundef %0, i64 noundef %1, ptr noundef %2, i64 noundef %3, i64 noundef %4, ptr noundef %5, ptr noundef %6) unnamed_addr #0 {
  %8 = alloca i64, align 8
  %9 = alloca ptr, align 8
  %10 = alloca %struct.H5VL_link_create_args_t, align 8
  %11 = alloca %struct.H5VL_loc_params_t, align 8
  store i64 %4, ptr %8, align 8, !tbaa !3
  call void @llvm.lifetime.start.p0(i64 8, ptr nonnull %9) #7
  store ptr null, ptr %9, align 8, !tbaa !20
  %.not = icmp eq ptr %6, null
  %12 = select i1 %.not, ptr %9, ptr %6
  call void @llvm.lifetime.start.p0(i64 56, ptr nonnull %10) #7
  call void @llvm.lifetime.start.p0(i64 40, ptr nonnull %11) #7
  %13 = load i8, ptr @H5L_init_g, align 1, !tbaa !7, !range !9, !noundef !10
  %14 = trunc nuw i8 %13 to i1
  %15 = load i8, ptr @H5_libterm_g, align 1, !range !9
  %16 = trunc nuw i8 %15 to i1
  %17 = xor i1 %16, true
  %18 = select i1 %14, i1 true, i1 %17
  br i1 %18, label %19, label %72, !prof !11

19:                                               ; preds = %7
  %20 = icmp eq i64 %1, 0
  br i1 %20, label %21, label %25

21:                                               ; preds = %19
  %22 = load i64, ptr @H5E_ARGS_g, align 8, !tbaa !3
  %23 = load i64, ptr @H5E_BADVALUE_g, align 8, !tbaa !3
  %24 = tail call i32 (ptr, ptr, i32, i64, i64, ptr, ...) @H5E_printf_stack(ptr noundef nonnull @.str, ptr noundef nonnull @__func__.H5L__create_soft_api_common, i32 noundef 304, i64 noundef %22, i64 noundef %23, ptr noundef nonnull @.str.95) #7
  br label %72

25:                                               ; preds = %19
  %.not28 = icmp eq ptr %0, null
  br i1 %.not28, label %26, label %30

26:                                               ; preds = %25
  %27 = load i64, ptr @H5E_ARGS_g, align 8, !tbaa !3
  %28 = load i64, ptr @H5E_BADVALUE_g, align 8, !tbaa !3
  %29 = tail call i32 (ptr, ptr, i32, i64, i64, ptr, ...) @H5E_printf_stack(ptr noundef nonnull @.str, ptr noundef nonnull @__func__.H5L__create_soft_api_common, i32 noundef 306, i64 noundef %27, i64 noundef %28, ptr noundef nonnull @.str.96) #7
  br label %72

30:                                               ; preds = %25
  %31 = load i8, ptr %0, align 1, !tbaa !14
  %.not29 = icmp eq i8 %31, 0
  br i1 %.not29, label %32, label %36

32:                                               ; preds = %30
  %33 = load i64, ptr @H5E_ARGS_g, align 8, !tbaa !3
  %34 = load i64, ptr @H5E_BADVALUE_g, align 8, !tbaa !3
  %35 = tail call i32 (ptr, ptr, i32, i64, i64, ptr, ...) @H5E_printf_stack(ptr noundef nonnull @.str, ptr noundef nonnull @__func__.H5L__create_soft_api_common, i32 noundef 308, i64 noundef %33, i64 noundef %34, ptr noundef nonnull @.str.97) #7
  br label %72

36:                                               ; preds = %30
  %cond = icmp eq i64 %3, 0
  br i1 %cond, label %44, label %37

37:                                               ; preds = %36
  %38 = load i64, ptr @H5P_CLS_LINK_CREATE_ID_g, align 8, !tbaa !3
  %39 = tail call i32 @H5P_isa_class(i64 noundef %3, i64 noundef %38) #7
  %.not31 = icmp eq i32 %39, 1
  br i1 %.not31, label %46, label %40

40:                                               ; preds = %37
  %41 = load i64, ptr @H5E_ARGS_g, align 8, !tbaa !3
  %42 = load i64, ptr @H5E_BADTYPE_g, align 8, !tbaa !3
  %43 = tail call i32 (ptr, ptr, i32, i64, i64, ptr, ...) @H5E_printf_stack(ptr noundef nonnull @.str, ptr noundef nonnull @__func__.H5L__create_soft_api_common, i32 noundef 310, i64 noundef %41, i64 noundef %42, ptr noundef nonnull @.str.9) #7
  br label %72

44:                                               ; preds = %36
  %45 = load i64, ptr @H5P_LST_LINK_CREATE_ID_g, align 8, !tbaa !3
  br label %46

46:                                               ; preds = %37, %44
  %.024 = phi i64 [ %45, %44 ], [ %3, %37 ]
  tail call void @H5CX_set_lcpl(i64 noundef %.024) #7
  %47 = call i32 @H5CX_set_apl(ptr noundef nonnull %8, ptr noundef nonnull @H5P_CLS_LACC, i64 noundef %1, i1 noundef zeroext true) #7
  %48 = icmp slt i32 %47, 0
  br i1 %48, label %49, label %53

49:                                               ; preds = %46
  %50 = load i64, ptr @H5E_LINK_g, align 8, !tbaa !3
  %51 = load i64, ptr @H5E_CANTSET_g, align 8, !tbaa !3
  %52 = call i32 (ptr, ptr, i32, i64, i64, ptr, ...) @H5E_printf_stack(ptr noundef nonnull @.str, ptr noundef nonnull @__func__.H5L__create_soft_api_common, i32 noundef 322, i64 noundef %50, i64 noundef %51, ptr noundef nonnull @.str.10) #7
  br label %72

53:                                               ; preds = %46
  %54 = load i64, ptr %8, align 8, !tbaa !3
  %55 = call i32 @H5VL_setup_name_args(i64 noundef %1, ptr noundef %2, i1 noundef zeroext true, i64 noundef %54, ptr noundef nonnull %12, ptr noundef nonnull %11) #7
  %56 = icmp slt i32 %55, 0
  br i1 %56, label %57, label %61

57:                                               ; preds = %53
  %58 = load i64, ptr @H5E_LINK_g, align 8, !tbaa !3
  %59 = load i64, ptr @H5E_CANTSET_g, align 8, !tbaa !3
  %60 = call i32 (ptr, ptr, i32, i64, i64, ptr, ...) @H5E_printf_stack(ptr noundef nonnull @.str, ptr noundef nonnull @__func__.H5L__create_soft_api_common, i32 noundef 326, i64 noundef %58, i64 noundef %59, ptr noundef nonnull @.str.98) #7
  br label %72

61:                                               ; preds = %53
  store i32 1, ptr %10, align 8, !tbaa !23
  %62 = getelementptr inbounds nuw i8, ptr %10, i64 8
  store ptr %0, ptr %62, align 8, !tbaa !14
  %63 = load ptr, ptr %12, align 8, !tbaa !20
  %64 = load i64, ptr %8, align 8, !tbaa !3
  %65 = load i64, ptr @H5P_LST_DATASET_XFER_ID_g, align 8, !tbaa !3
  %66 = call i32 @H5VL_link_create(ptr noundef nonnull %10, ptr noundef %63, ptr noundef nonnull %11, i64 noundef %.024, i64 noundef %64, i64 noundef %65, ptr noundef %5) #7
  %67 = icmp slt i32 %66, 0
  br i1 %67, label %68, label %72

68:                                               ; preds = %61
  %69 = load i64, ptr @H5E_LINK_g, align 8, !tbaa !3
  %70 = load i64, ptr @H5E_CANTCREATE_g, align 8, !tbaa !3
  %71 = call i32 (ptr, ptr, i32, i64, i64, ptr, ...) @H5E_printf_stack(ptr noundef nonnull @.str, ptr noundef nonnull @__func__.H5L__create_soft_api_common, i32 noundef 335, i64 noundef %69, i64 noundef %70, ptr noundef nonnull @.str.99) #7
  br label %72

72:                                               ; preds = %21, %26, %32, %40, %49, %57, %68, %61, %7
  %.0 = phi i32 [ -1, %21 ], [ -1, %40 ], [ -1, %49 ], [ -1, %57 ], [ -1, %68 ], [ 0, %61 ], [ -1, %32 ], [ -1, %26 ], [ 0, %7 ]
  call void @llvm.lifetime.end.p0(i64 40, ptr nonnull %11) #7
  call void @llvm.lifetime.end.p0(i64 56, ptr nonnull %10) #7
  call void @llvm.lifetime.end.p0(i64 8, ptr nonnull %9) #7
  ret i32 %.0
}